(dp1
S'OriginalConfig'
p2
ccopy_reg
_reconstructor
p3
(cWMCore.Configuration
Configuration
p4
c__builtin__
object
p5
NtRp6
(dp7
S'Site'
p8
g3
(cWMCore.Configuration
ConfigSection
p9
g5
NtRp10
(dp11
S'_internal_documentation'
p12
S''
sS'_internal_settings'
p13
c__builtin__
set
p14
((lp15
S'storageSite'
p16
atRp17
sS'_internal_name'
p18
g8
sS'_internal_docstrings'
p19
(dp20
sS'_internal_children'
p21
g14
((ltRp22
sg16
S'T2_CH_CERN'
p23
sS'_internal_parent_ref'
p24
NsbsS'_internal_sections'
p25
(lp26
S'General'
p27
aS'JobType'
p28
aS'Data'
p29
ag8
aS'User'
p30
aS'Debug'
p31
asg27
g3
(g9
g5
NtRp32
(dp33
g12
S''
sg13
g14
((lp34
S'transferOutputs'
p35
atRp36
sg18
g27
sg19
(dp37
sg35
I01
sg21
g14
((ltRp38
sg24
NsbsS'_internal_webapps'
p39
(lp40
sg30
g3
(g9
g5
NtRp41
(dp42
g12
S''
sg13
g14
((ltRp43
sg18
g30
sg19
(dp44
sg21
g14
((ltRp45
sg24
NsbsS'_internal_components'
p46
(lp47
sg31
g3
(g9
g5
NtRp48
(dp49
g12
S''
sg13
g14
((ltRp50
sg18
g31
sg19
(dp51
sg21
g14
((ltRp52
sg24
Nsbsg29
g3
(g9
g5
NtRp53
(dp54
S'inputDataset'
p55
S'/STARLIGHTProd/kjung-STARLIGHT_RAW_kjung_100kTest-237f2877ab396a5cd88221670e02a64e/USER'
p56
sS'totalUnits'
p57
I-1
sS'splitting'
p58
S'FileBased'
p59
sS'unitsPerJob'
p60
I1
sg12
S''
sg13
g14
((lp61
g55
ag57
ag60
aS'outLFNDirBase'
p62
aS'inputDBS'
p63
ag58
aS'publishDataName'
p64
aS'publication'
p65
atRp66
sg62
S'/store/group/phys_heavyions/velicanu/L1EmulatorTests/'
p67
sg18
g29
sg63
S'global'
p68
sg19
(dp69
sg21
g14
((ltRp70
sg64
S'Hydjet_Quenched_MinBias_5020GeV_L1Emulator_hlt_MC_stage1_v1'
p71
sg24
Nsg65
I00
sbsg28
g3
(g9
g5
NtRp72
(dp73
S'outputFiles'
p74
(lp75
S'openHLT.root'
p76
asS'maxMemoryMB'
p77
I3500
sg12
S''
sg13
g14
((lp78
S'psetName'
p79
aS'pluginName'
p80
ag74
ag77
atRp81
sg18
g28
sg19
(dp82
sg80
S'Analysis'
p83
sg21
g14
((ltRp84
sg79
S'hlt_MC_stage1.py'
p85
sg24
NsbsbsS'voGroup'
p86
S''
sS'Server'
p87
S'cmsweb.cern.ch'
p88
sS'instance'
p89
S'prod'
p90
sS'RequestName'
p91
S'151110_094445:velicanu_crab_20151110_104429'
p92
sS'voRole'
p93
S'NULL'
p94
sS'Port'
p95
S''
s.