(dp1
S'OriginalConfig'
p2
ccopy_reg
_reconstructor
p3
(cWMCore.Configuration
Configuration
p4
c__builtin__
object
p5
NtRp6
(dp7
S'Site'
p8
g3
(cWMCore.Configuration
ConfigSection
p9
g5
NtRp10
(dp11
S'_internal_documentation'
p12
S''
sS'_internal_settings'
p13
c__builtin__
set
p14
((lp15
S'blacklist'
p16
aS'storageSite'
p17
atRp18
sS'_internal_name'
p19
g8
sS'_internal_docstrings'
p20
(dp21
sg16
(lp22
S'T2_US_Nebraska'
p23
asS'_internal_children'
p24
g14
((ltRp25
sg17
S'T2_US_MIT'
p26
sS'_internal_parent_ref'
p27
NsbsS'_internal_sections'
p28
(lp29
S'General'
p30
aS'JobType'
p31
aS'Data'
p32
aS'User'
p33
ag8
asg30
g3
(g9
g5
NtRp34
(dp35
g12
S''
sg13
g14
((lp36
S'transferOutputs'
p37
aS'requestName'
p38
atRp39
sg19
g30
sg20
(dp40
sg37
I01
sg24
g14
((ltRp41
sg38
S'HIHardProbesPeripheral-HIRun2015-PromptReco-v1-FOREST-hcalnoise-v23'
p42
sg27
NsbsS'_internal_webapps'
p43
(lp44
sg33
g3
(g9
g5
NtRp45
(dp46
g12
S''
sg13
g14
((ltRp47
sg19
g33
sg20
(dp48
sg24
g14
((ltRp49
sg27
NsbsS'_internal_components'
p50
(lp51
sg32
g3
(g9
g5
NtRp52
(dp53
S'inputDataset'
p54
S'/HIHardProbesPeripheral/HIRun2015-PromptReco-v1/AOD'
p55
sS'outputDatasetTag'
p56
g42
sS'totalUnits'
p57
I-1
sS'unitsPerJob'
p58
I10
sg12
S''
sg13
g14
((lp59
g54
ag56
ag57
ag58
aS'splitting'
p60
aS'lumiMask'
p61
aS'publication'
p62
atRp63
sg19
g32
sg60
S'FileBased'
p64
sg20
(dp65
sg24
g14
((ltRp66
sg27
Nsg61
S'Cert_262548-263757_PromptReco_HICollisions15_JSON.txt'
p67
sg62
I00
sbsg31
g3
(g9
g5
NtRp68
(dp69
g12
S''
sg13
g14
((lp70
S'psetName'
p71
aS'pluginName'
p72
atRp73
sg19
g31
sg20
(dp74
sg72
S'Analysis'
p75
sg24
g14
((ltRp76
sg71
S'runForestAOD_PbPb_DATA_75X.py'
p77
sg27
NsbsbsS'voGroup'
p78
S''
sS'Server'
p79
S'cmsweb.cern.ch'
p80
sS'instance'
p81
S'prod'
p82
sS'RequestName'
p83
S'160204_041458:velicanu_crab_HIHardProbesPeripheral-HIRun2015-PromptReco-v1-FOREST-hcalnoise-v23'
p84
sS'voRole'
p85
S'NULL'
p86
sS'Port'
p87
S''
s.